; ModuleID = 'source-C-CXX/51/5428.cpp'
source_filename = "source-C-CXX/51/5428.cpp"
target datalayout = "e-m:e-p270:32:32-p271:32:32-p272:64:64-i64:64-f80:128-n8:16:32:64-S128"
target triple = "x86_64-pc-linux-gnu"

%"class.std::ios_base::Init" = type { i8 }
%"class.std::basic_istream" = type { i32 (...)**, i64, %"class.std::basic_ios" }
%"class.std::basic_ios" = type { %"class.std::ios_base", %"class.std::basic_ostream"*, i8, i8, %"class.std::basic_streambuf"*, %"class.std::ctype"*, %"class.std::num_put"*, %"class.std::num_get"* }
%"class.std::ios_base" = type { i32 (...)**, i64, i64, i32, i32, i32, %"struct.std::ios_base::_Callback_list"*, %"struct.std::ios_base::_Words", [8 x %"struct.std::ios_base::_Words"], i32, %"struct.std::ios_base::_Words"*, %"class.std::locale" }
%"struct.std::ios_base::_Callback_list" = type { %"struct.std::ios_base::_Callback_list"*, void (i32, %"class.std::ios_base"*, i32)*, i32, i32 }
%"struct.std::ios_base::_Words" = type { i8*, i64 }
%"class.std::locale" = type { %"class.std::locale::_Impl"* }
%"class.std::locale::_Impl" = type { i32, %"class.std::locale::facet"**, i64, %"class.std::locale::facet"**, i8** }
%"class.std::locale::facet" = type <{ i32 (...)**, i32, [4 x i8] }>
%"class.std::basic_ostream" = type { i32 (...)**, %"class.std::basic_ios" }
%"class.std::basic_streambuf" = type { i32 (...)**, i8*, i8*, i8*, i8*, i8*, i8*, %"class.std::locale" }
%"class.std::ctype" = type <{ %"class.std::locale::facet.base", [4 x i8], %struct.__locale_struct*, i8, [7 x i8], i32*, i32*, i16*, i8, [256 x i8], [256 x i8], i8, [6 x i8] }>
%"class.std::locale::facet.base" = type <{ i32 (...)**, i32 }>
%struct.__locale_struct = type { [13 x %struct.__locale_data*], i16*, i32*, i32*, [13 x i8*] }
%struct.__locale_data = type opaque
%"class.std::num_put" = type { %"class.std::locale::facet.base", [4 x i8] }
%"class.std::num_get" = type { %"class.std::locale::facet.base", [4 x i8] }

@_ZStL8__ioinit = internal global %"class.std::ios_base::Init" zeroinitializer, align 1
@__dso_handle = external hidden global i8
@_ZSt3cin = external global %"class.std::basic_istream", align 8
@_ZSt4cout = external global %"class.std::basic_ostream", align 8
@.str = private unnamed_addr constant [2 x i8] c" \00", align 1
@llvm.global_ctors = appending global [1 x { i32, void ()*, i8* }] [{ i32, void ()*, i8* } { i32 65535, void ()* @_GLOBAL__sub_I_5428.cpp, i8* null }]

declare void @_ZNSt8ios_base4InitC1Ev(%"class.std::ios_base::Init"* nonnull align 1 dereferenceable(1)) unnamed_addr #0

; Function Attrs: nounwind
declare void @_ZNSt8ios_base4InitD1Ev(%"class.std::ios_base::Init"* nonnull align 1 dereferenceable(1)) unnamed_addr #1

; Function Attrs: nofree nounwind
declare i32 @__cxa_atexit(void (i8*)*, i8*, i8*) local_unnamed_addr #2

; Function Attrs: mustprogress norecurse sspstrong uwtable
define dso_local i32 @main() local_unnamed_addr #3 {
  %1 = alloca i32, align 4
  %2 = alloca i32, align 4
  %3 = alloca [101 x i32], align 16
  %4 = bitcast i32* %1 to i8*
  call void @llvm.lifetime.start.p0i8(i64 4, i8* nonnull %4) #6
  %5 = bitcast i32* %2 to i8*
  call void @llvm.lifetime.start.p0i8(i64 4, i8* nonnull %5) #6
  %6 = bitcast [101 x i32]* %3 to i8*
  call void @llvm.lifetime.start.p0i8(i64 404, i8* nonnull %6) #6
  %7 = call nonnull align 8 dereferenceable(16) %"class.std::basic_istream"* @_ZNSirsERi(%"class.std::basic_istream"* nonnull align 8 dereferenceable(16) @_ZSt3cin, i32* nonnull align 4 dereferenceable(4) %1)
  %8 = call nonnull align 8 dereferenceable(16) %"class.std::basic_istream"* @_ZNSirsERi(%"class.std::basic_istream"* nonnull align 8 dereferenceable(16) %7, i32* nonnull align 4 dereferenceable(4) %2)
  %9 = load i32, i32* %1, align 4, !tbaa !5
  %10 = icmp sgt i32 %9, 0
  br i1 %10, label %20, label %11

11:                                               ; preds = %20, %0
  %12 = phi i32 [ %9, %0 ], [ %25, %20 ]
  %13 = load i32, i32* %2, align 4, !tbaa !5
  %14 = sub nsw i32 %12, %13
  %15 = icmp sgt i32 %13, 0
  br i1 %15, label %16, label %28

16:                                               ; preds = %11
  %17 = xor i32 %13, -1
  %18 = add i32 %12, %17
  %19 = zext i32 %13 to i64
  br label %30

20:                                               ; preds = %0, %20
  %21 = phi i64 [ %24, %20 ], [ 0, %0 ]
  %22 = getelementptr inbounds [101 x i32], [101 x i32]* %3, i64 0, i64 %21
  %23 = call nonnull align 8 dereferenceable(16) %"class.std::basic_istream"* @_ZNSirsERi(%"class.std::basic_istream"* nonnull align 8 dereferenceable(16) @_ZSt3cin, i32* nonnull align 4 dereferenceable(4) %22)
  %24 = add nuw nsw i64 %21, 1
  %25 = load i32, i32* %1, align 4, !tbaa !5
  %26 = sext i32 %25 to i64
  %27 = icmp slt i64 %24, %26
  br i1 %27, label %20, label %11, !llvm.loop !9

28:                                               ; preds = %84, %11
  %29 = icmp sgt i32 %12, 0
  br i1 %29, label %89, label %105

30:                                               ; preds = %16, %84
  %31 = phi i64 [ 0, %16 ], [ %86, %84 ]
  %32 = phi i32 [ %18, %16 ], [ %87, %84 ]
  %33 = trunc i64 %31 to i32
  %34 = add i32 %18, %33
  %35 = sext i32 %34 to i64
  %36 = sub i64 %35, %31
  %37 = trunc i64 %31 to i32
  %38 = add i32 %14, %37
  %39 = sext i32 %38 to i64
  %40 = getelementptr inbounds [101 x i32], [101 x i32]* %3, i64 0, i64 %39
  %41 = load i32, i32* %40, align 4, !tbaa !5
  %42 = add i32 %38, -1
  %43 = sext i32 %42 to i64
  %44 = icmp sgt i64 %31, %43
  br i1 %44, label %84, label %45

45:                                               ; preds = %30
  %46 = sub nsw i64 1, %31
  %47 = add i64 %46, %35
  %48 = sext i32 %32 to i64
  %49 = and i64 %47, 3
  %50 = icmp eq i64 %49, 0
  br i1 %50, label %61, label %51

51:                                               ; preds = %45, %51
  %52 = phi i64 [ %58, %51 ], [ %48, %45 ]
  %53 = phi i64 [ %59, %51 ], [ %49, %45 ]
  %54 = getelementptr inbounds [101 x i32], [101 x i32]* %3, i64 0, i64 %52
  %55 = load i32, i32* %54, align 4, !tbaa !5
  %56 = add nsw i64 %52, 1
  %57 = getelementptr inbounds [101 x i32], [101 x i32]* %3, i64 0, i64 %56
  store i32 %55, i32* %57, align 4, !tbaa !5
  %58 = add nsw i64 %52, -1
  %59 = add i64 %53, -1
  %60 = icmp eq i64 %59, 0
  br i1 %60, label %61, label %51, !llvm.loop !11

61:                                               ; preds = %51, %45
  %62 = phi i64 [ %48, %45 ], [ %58, %51 ]
  %63 = icmp ult i64 %36, 3
  br i1 %63, label %84, label %64

64:                                               ; preds = %61, %64
  %65 = phi i64 [ %82, %64 ], [ %62, %61 ]
  %66 = getelementptr inbounds [101 x i32], [101 x i32]* %3, i64 0, i64 %65
  %67 = load i32, i32* %66, align 4, !tbaa !5
  %68 = add nsw i64 %65, 1
  %69 = getelementptr inbounds [101 x i32], [101 x i32]* %3, i64 0, i64 %68
  store i32 %67, i32* %69, align 4, !tbaa !5
  %70 = add nsw i64 %65, -1
  %71 = getelementptr inbounds [101 x i32], [101 x i32]* %3, i64 0, i64 %70
  %72 = load i32, i32* %71, align 4, !tbaa !5
  %73 = getelementptr inbounds [101 x i32], [101 x i32]* %3, i64 0, i64 %65
  store i32 %72, i32* %73, align 4, !tbaa !5
  %74 = add nsw i64 %65, -2
  %75 = getelementptr inbounds [101 x i32], [101 x i32]* %3, i64 0, i64 %74
  %76 = load i32, i32* %75, align 4, !tbaa !5
  %77 = getelementptr inbounds [101 x i32], [101 x i32]* %3, i64 0, i64 %70
  store i32 %76, i32* %77, align 4, !tbaa !5
  %78 = add nsw i64 %65, -3
  %79 = getelementptr inbounds [101 x i32], [101 x i32]* %3, i64 0, i64 %78
  %80 = load i32, i32* %79, align 4, !tbaa !5
  %81 = getelementptr inbounds [101 x i32], [101 x i32]* %3, i64 0, i64 %74
  store i32 %80, i32* %81, align 4, !tbaa !5
  %82 = add nsw i64 %65, -4
  %83 = icmp sgt i64 %78, %31
  br i1 %83, label %64, label %84, !llvm.loop !13

84:                                               ; preds = %61, %64, %30
  %85 = getelementptr inbounds [101 x i32], [101 x i32]* %3, i64 0, i64 %31
  store i32 %41, i32* %85, align 4, !tbaa !5
  %86 = add nuw nsw i64 %31, 1
  %87 = add i32 %32, 1
  %88 = icmp eq i64 %86, %19
  br i1 %88, label %28, label %30, !llvm.loop !14

89:                                               ; preds = %28, %100
  %90 = phi i64 [ %101, %100 ], [ 0, %28 ]
  %91 = phi i32 [ %102, %100 ], [ %12, %28 ]
  %92 = add nsw i32 %91, -1
  %93 = zext i32 %92 to i64
  %94 = icmp eq i64 %90, %93
  %95 = getelementptr inbounds [101 x i32], [101 x i32]* %3, i64 0, i64 %90
  %96 = load i32, i32* %95, align 4, !tbaa !5
  %97 = call nonnull align 8 dereferenceable(8) %"class.std::basic_ostream"* @_ZNSolsEi(%"class.std::basic_ostream"* nonnull align 8 dereferenceable(8) @_ZSt4cout, i32 %96)
  br i1 %94, label %100, label %98

98:                                               ; preds = %89
  %99 = call nonnull align 8 dereferenceable(8) %"class.std::basic_ostream"* @_ZSt16__ostream_insertIcSt11char_traitsIcEERSt13basic_ostreamIT_T0_ES6_PKS3_l(%"class.std::basic_ostream"* nonnull align 8 dereferenceable(8) %97, i8* nonnull getelementptr inbounds ([2 x i8], [2 x i8]* @.str, i64 0, i64 0), i64 1)
  br label %100

100:                                              ; preds = %89, %98
  %101 = add nuw nsw i64 %90, 1
  %102 = load i32, i32* %1, align 4, !tbaa !5
  %103 = sext i32 %102 to i64
  %104 = icmp slt i64 %101, %103
  br i1 %104, label %89, label %105, !llvm.loop !15

105:                                              ; preds = %100, %28
  call void @llvm.lifetime.end.p0i8(i64 404, i8* nonnull %6) #6
  call void @llvm.lifetime.end.p0i8(i64 4, i8* nonnull %5) #6
  call void @llvm.lifetime.end.p0i8(i64 4, i8* nonnull %4) #6
  ret i32 0
}

; Function Attrs: argmemonly mustprogress nofree nosync nounwind willreturn
declare void @llvm.lifetime.start.p0i8(i64 immarg, i8* nocapture) #4

declare nonnull align 8 dereferenceable(16) %"class.std::basic_istream"* @_ZNSirsERi(%"class.std::basic_istream"* nonnull align 8 dereferenceable(16), i32* nonnull align 4 dereferenceable(4)) local_unnamed_addr #0

declare nonnull align 8 dereferenceable(8) %"class.std::basic_ostream"* @_ZNSolsEi(%"class.std::basic_ostream"* nonnull align 8 dereferenceable(8), i32) local_unnamed_addr #0

; Function Attrs: argmemonly mustprogress nofree nosync nounwind willreturn
declare void @llvm.lifetime.end.p0i8(i64 immarg, i8* nocapture) #4

declare nonnull align 8 dereferenceable(8) %"class.std::basic_ostream"* @_ZSt16__ostream_insertIcSt11char_traitsIcEERSt13basic_ostreamIT_T0_ES6_PKS3_l(%"class.std::basic_ostream"* nonnull align 8 dereferenceable(8), i8*, i64) local_unnamed_addr #0

; Function Attrs: sspstrong uwtable
define internal void @_GLOBAL__sub_I_5428.cpp() #5 section ".text.startup" {
  tail call void @_ZNSt8ios_base4InitC1Ev(%"class.std::ios_base::Init"* nonnull align 1 dereferenceable(1) @_ZStL8__ioinit)
  %1 = tail call i32 @__cxa_atexit(void (i8*)* bitcast (void (%"class.std::ios_base::Init"*)* @_ZNSt8ios_base4InitD1Ev to void (i8*)*), i8* getelementptr inbounds (%"class.std::ios_base::Init", %"class.std::ios_base::Init"* @_ZStL8__ioinit, i64 0, i32 0), i8* nonnull @__dso_handle) #6
  ret void
}


!llvm.module.flags = !{!0, !1, !2, !3}
!llvm.ident = !{!4}

!0 = !{i32 1, !"wchar_size", i32 4}
!1 = !{i32 7, !"PIC Level", i32 2}
!2 = !{i32 7, !"PIE Level", i32 2}
!3 = !{i32 7, !"uwtable", i32 1}
!4 = !{!"clang version 13.0.0"}
!5 = !{!6, !6, i64 0}
!6 = !{!"int", !7, i64 0}
!7 = !{!"omnipotent char", !8, i64 0}
!8 = !{!"Simple C++ TBAA"}
!9 = distinct !{!9, !10}
!10 = !{!"llvm.loop.mustprogress"}
!11 = distinct !{!11, !12}
!12 = !{!"llvm.loop.unroll.disable"}
!13 = distinct !{!13, !10}
!14 = distinct !{!14, !10}
!15 = distinct !{!15, !10}
